; Function Attrs: mustprogress uwtable
define noundef zeroext i1 @_ZNK4cvc58internal9LogicInfo6isPureENS0_6theory8TheoryIdE(ptr nocapture noundef nonnull readonly align 8 dereferenceable(88) %this, i32 noundef %theory) local_unnamed_addr #3 align 2 personality ptr @__gxx_personality_v0 {
entry:
  %ref.tmp = alloca %"class.std::__cxx11::basic_string", align 8
  %d_locked = getelementptr inbounds i8, ptr %this, i64 87
  %0 = load i8, ptr %d_locked, align 1
  %1 = and i8 %0, 1
  %tobool.not = icmp eq i8 %1, 0
  br i1 %tobool.not, label %if.then, label %do.end

if.then:                                          ; preds = %entry
  %exception = tail call ptr @__cxa_allocate_exception(i64 40) #14
  invoke void (ptr, ptr, ...) @_ZN4cvc58internal24IllegalArgumentException14formatVariadicB5cxx11EPKcz(ptr nonnull sret(%"class.std::__cxx11::basic_string") align 8 %ref.tmp, ptr noundef nonnull @.str.3)
          to label %invoke.cont unwind label %ehcleanup.thread

invoke.cont:                                      ; preds = %if.then
  %call = call noundef ptr @_ZNKSt7__cxx1112basic_stringIcSt11char_traitsIcESaIcEE5c_strEv(ptr noundef nonnull align 8 dereferenceable(32) %ref.tmp) #14
  invoke void @_ZN4cvc58internal24IllegalArgumentExceptionC2EPKcS3_S3_S3_(ptr noundef nonnull align 8 dereferenceable(40) %exception, ptr noundef nonnull @.str.1, ptr noundef nonnull @.str.2, ptr noundef nonnull @__PRETTY_FUNCTION__._ZNK4cvc58internal9LogicInfo6isPureENS0_6theory8TheoryIdE, ptr noundef %call)
          to label %invoke.cont3 unwind label %ehcleanup.thread11

ehcleanup.thread11:                               ; preds = %invoke.cont
  %2 = landingpad { ptr, i32 }
          cleanup
  call void @_ZNSt7__cxx1112basic_stringIcSt11char_traitsIcESaIcEED1Ev(ptr noundef nonnull align 8 dereferenceable(32) %ref.tmp) #14
  br label %cleanup.action

invoke.cont3:                                     ; preds = %invoke.cont
  invoke void @__cxa_throw(ptr nonnull %exception, ptr nonnull @_ZTIN4cvc58internal24IllegalArgumentExceptionE, ptr nonnull @_ZN4cvc58internal24IllegalArgumentExceptionD2Ev) #16
          to label %unreachable unwind label %ehcleanup

ehcleanup.thread:                                 ; preds = %if.then
  %3 = landingpad { ptr, i32 }
          cleanup
  br label %cleanup.action

ehcleanup:                                        ; preds = %invoke.cont3
  %4 = landingpad { ptr, i32 }
          cleanup
  call void @_ZNSt7__cxx1112basic_stringIcSt11char_traitsIcESaIcEED1Ev(ptr noundef nonnull align 8 dereferenceable(32) %ref.tmp) #14
  br label %eh.resume

cleanup.action:                                   ; preds = %ehcleanup.thread11, %ehcleanup.thread
  %.pn10 = phi { ptr, i32 } [ %3, %ehcleanup.thread ], [ %2, %ehcleanup.thread11 ]
  call void @__cxa_free_exception(ptr %exception) #14
  br label %eh.resume

do.end:                                           ; preds = %entry
  %call4 = tail call noundef zeroext i1 @_ZNK4cvc58internal9LogicInfo15isTheoryEnabledENS0_6theory8TheoryIdE(ptr noundef nonnull align 8 dereferenceable(88) %this, i32 noundef %theory)
  br i1 %call4, label %land.lhs.true, label %land.end

land.lhs.true:                                    ; preds = %do.end
  %call5 = tail call noundef zeroext i1 @_ZNK4cvc58internal9LogicInfo16isSharingEnabledEv(ptr noundef nonnull align 8 dereferenceable(88) %this)
  br i1 %call5, label %land.end, label %land.lhs.true6

land.lhs.true6:                                   ; preds = %land.lhs.true
  switch i32 %theory, label %_ZN4cvc58internal9LogicInfo12isTrueTheoryENS0_6theory8TheoryIdE.exit [
    i32 0, label %_ZN4cvc58internal9LogicInfo12isTrueTheoryENS0_6theory8TheoryIdE.exit.thread
    i32 1, label %_ZN4cvc58internal9LogicInfo12isTrueTheoryENS0_6theory8TheoryIdE.exit.thread
    i32 13, label %_ZN4cvc58internal9LogicInfo12isTrueTheoryENS0_6theory8TheoryIdE.exit.thread
  ]

_ZN4cvc58internal9LogicInfo12isTrueTheoryENS0_6theory8TheoryIdE.exit.thread: ; preds = %land.lhs.true6, %land.lhs.true6, %land.lhs.true6
  %d_sharingTheories15 = getelementptr inbounds i8, ptr %this, i64 72
  %5 = load i64, ptr %d_sharingTheories15, align 8
  %6 = icmp eq i64 %5, 0
  br label %land.rhs

_ZN4cvc58internal9LogicInfo12isTrueTheoryENS0_6theory8TheoryIdE.exit: ; preds = %land.lhs.true6
  %d_sharingTheories = getelementptr inbounds i8, ptr %this, i64 72
  %7 = load i64, ptr %d_sharingTheories, align 8
  %cmp = icmp eq i64 %7, 1
  br i1 %cmp, label %land.rhs, label %land.end

land.rhs:                                         ; preds = %_ZN4cvc58internal9LogicInfo12isTrueTheoryENS0_6theory8TheoryIdE.exit.thread, %_ZN4cvc58internal9LogicInfo12isTrueTheoryENS0_6theory8TheoryIdE.exit
  %cmp10 = phi i1 [ %6, %_ZN4cvc58internal9LogicInfo12isTrueTheoryENS0_6theory8TheoryIdE.exit.thread ], [ false, %_ZN4cvc58internal9LogicInfo12isTrueTheoryENS0_6theory8TheoryIdE.exit ]
  switch i32 %theory, label %land.end [
    i32 0, label %lor.rhs
    i32 1, label %lor.rhs
    i32 13, label %lor.rhs
  ]

lor.rhs:                                          ; preds = %land.rhs, %land.rhs, %land.rhs
  br label %land.end

land.end:                                         ; preds = %land.rhs, %_ZN4cvc58internal9LogicInfo12isTrueTheoryENS0_6theory8TheoryIdE.exit, %lor.rhs, %land.lhs.true, %do.end
  %8 = phi i1 [ false, %land.lhs.true ], [ false, %do.end ], [ %cmp10, %lor.rhs ], [ false, %_ZN4cvc58internal9LogicInfo12isTrueTheoryENS0_6theory8TheoryIdE.exit ], [ true, %land.rhs ]
  ret i1 %8

eh.resume:                                        ; preds = %ehcleanup, %cleanup.action
  %.pn9 = phi { ptr, i32 } [ %4, %ehcleanup ], [ %.pn10, %cleanup.action ]
  resume { ptr, i32 } %.pn9

unreachable:                                      ; preds = %invoke.cont3
  unreachable
}